; Function Attrs: nounwind uwtable
define hidden i32 @lj_ir_kint64(ptr noundef captures(none) %0, i64 noundef %1) local_unnamed_addr #6 {
  %3 = getelementptr inbounds nuw i8, ptr %0, i64 32
  %4 = load ptr, ptr %3, align 8, !tbaa !30
  %5 = getelementptr inbounds nuw i8, ptr %0, i64 460
  %.0.in27.i = load i16, ptr %5, align 2, !tbaa !33
  %.not28.i = icmp eq i16 %.0.in27.i, 0
  br i1 %.not28.i, label %._crit_edge.i, label %.lr.ph.i

6:                                                ; preds = %.lr.ph.i
  %7 = getelementptr inbounds nuw i8, ptr %9, i64 6
  %.0.in.i = load i16, ptr %7, align 2, !tbaa !33
  %.not.i = icmp eq i16 %.0.in.i, 0
  br i1 %.not.i, label %._crit_edge.i, label %.lr.ph.i, !llvm.loop !44

.lr.ph.i:                                         ; preds = %2, %6
  %.0.in29.i = phi i16 [ %.0.in.i, %6 ], [ %.0.in27.i, %2 ]
  %8 = zext i16 %.0.in29.i to i64
  %9 = getelementptr inbounds nuw %union.IRIns, ptr %4, i64 %8
  %10 = getelementptr inbounds nuw i8, ptr %9, i64 8
  %11 = load i64, ptr %10, align 8, !tbaa !33
  %12 = icmp eq i64 %11, %1
  br i1 %12, label %.loopexit.i, label %6

._crit_edge.i:                                    ; preds = %6, %2
  %13 = getelementptr inbounds nuw i8, ptr %0, i64 40
  %14 = load i32, ptr %13, align 8, !tbaa !43
  %15 = add i32 %14, -2
  %16 = getelementptr inbounds nuw i8, ptr %0, i64 340
  %17 = load i32, ptr %16, align 4, !tbaa !4
  %18 = icmp ult i32 %15, %17
  br i1 %18, label %19, label %ir_nextk64.exit.i, !prof !45

19:                                               ; preds = %._crit_edge.i
  tail call fastcc void @lj_ir_growbot(ptr noundef nonnull %0)
  %.pre.i = load ptr, ptr %3, align 8, !tbaa !30
  br label %ir_nextk64.exit.i

ir_nextk64.exit.i:                                ; preds = %19, %._crit_edge.i
  %20 = phi ptr [ %4, %._crit_edge.i ], [ %.pre.i, %19 ]
  store i32 %15, ptr %13, align 8, !tbaa !43
  %21 = zext i32 %15 to i64
  %22 = getelementptr inbounds nuw %union.IRIns, ptr %20, i64 %21
  %23 = getelementptr inbounds nuw i8, ptr %22, i64 8
  store i64 %1, ptr %23, align 8, !tbaa !33
  %24 = getelementptr inbounds nuw i8, ptr %22, i64 4
  store i8 21, ptr %24, align 4, !tbaa !33
  %25 = getelementptr inbounds nuw i8, ptr %22, i64 5
  store i8 29, ptr %25, align 1, !tbaa !33
  store i32 0, ptr %22, align 8, !tbaa !33
  %26 = load i16, ptr %5, align 2, !tbaa !34
  %27 = getelementptr inbounds nuw i8, ptr %22, i64 6
  store i16 %26, ptr %27, align 2, !tbaa !33
  %28 = trunc i32 %15 to i16
  store i16 %28, ptr %5, align 2, !tbaa !34
  br label %lj_ir_k64.exit

.loopexit.i:                                      ; preds = %.lr.ph.i
  %.0.le.i = zext i16 %.0.in29.i to i32
  br label %lj_ir_k64.exit

lj_ir_k64.exit:                                   ; preds = %ir_nextk64.exit.i, %.loopexit.i
  %.1.i = phi i32 [ %15, %ir_nextk64.exit.i ], [ %.0.le.i, %.loopexit.i ]
  %29 = add i32 %.1.i, 352321536
  ret i32 %29
}